target datalayout = "e-m:e-p270:32:32-p271:32:32-p272:64:64-i64:64-i128:128-f80:128-n8:16:32:64-S128"
target triple = "x86_64-pc-linux-gnu"

%struct._ir_insn = type { %struct.anon, %union.anon.6 }
%struct.anon = type { %union.anon.0, %union.anon.5 }
%union.anon.0 = type { i32 }
%union.anon.5 = type { i32 }
%union.anon.6 = type { %union._ir_val }
%union._ir_val = type { double }
%struct.anon.7 = type { i32, i32 }
%struct._ir_ctx = type { ptr, i32, i32, i32, i32, i32, i32, i32, i32, i32, i32, %struct._ir_insn, ptr, ptr, ptr, i32, i32, i32, ptr, ptr, ptr, ptr, ptr, i32, i32, i64, i32, i32, i32, i64, i32, i32, i32, i32, ptr, ptr, ptr, ptr, ptr, ptr, %union.anon.14, ptr, i32, i32, i32, i64, i32, i32, i32, ptr, ptr, ptr, ptr, %struct._ir_strtab, [61 x i32], [14 x i32] }
%union.anon.14 = type { ptr }
%struct._ir_strtab = type { ptr, i32, i32, i32, i32, ptr, i32, i32 }
%struct.anon.1 = type { %union.anon.2, %union.anon.4 }
%union.anon.2 = type { i16 }
%union.anon.4 = type { i16 }
%struct.anon.3 = type { i8, i8 }
%struct.anon.8 = type { %union.anon.9, i32 }
%union.anon.9 = type { i32 }

; Function Attrs: nounwind uwtable
define internal void @ir_swap_ops(ptr noundef %0) #0 {
  %2 = alloca ptr, align 8
  %3 = alloca i32, align 4
  store ptr %0, ptr %2, align 8
  %4 = load ptr, ptr %2, align 8
  %5 = getelementptr inbounds %struct._ir_insn, ptr %4, i32 0, i32 0
  %6 = getelementptr inbounds %struct.anon, ptr %5, i32 0, i32 1
  %7 = load i32, ptr %6, align 4
  store i32 %7, ptr %3, align 4
  %8 = load ptr, ptr %2, align 8
  %9 = getelementptr inbounds %struct._ir_insn, ptr %8, i32 0, i32 1
  %10 = getelementptr inbounds %struct.anon.7, ptr %9, i32 0, i32 0
  %11 = load i32, ptr %10, align 8
  %12 = load ptr, ptr %2, align 8
  %13 = getelementptr inbounds %struct._ir_insn, ptr %12, i32 0, i32 0
  %14 = getelementptr inbounds %struct.anon, ptr %13, i32 0, i32 1
  store i32 %11, ptr %14, align 4
  %15 = load i32, ptr %3, align 4
  %16 = load ptr, ptr %2, align 8
  %17 = getelementptr inbounds %struct._ir_insn, ptr %16, i32 0, i32 1
  %18 = getelementptr inbounds %struct.anon.7, ptr %17, i32 0, i32 0
  store i32 %15, ptr %18, align 8
  ret void
}

; Function Attrs: nounwind uwtable
define internal void @ir_match_fuse_load_cmp_fp_br(ptr noundef %0, ptr noundef %1, i32 noundef %2, i1 noundef zeroext %3) #0 {
  %5 = alloca ptr, align 8
  %6 = alloca ptr, align 8
  %7 = alloca i32, align 4
  %8 = alloca i8, align 1
  store ptr %0, ptr %5, align 8
  store ptr %1, ptr %6, align 8
  store i32 %2, ptr %7, align 4
  %9 = zext i1 %3 to i8
  store i8 %9, ptr %8, align 1
  %10 = load i8, ptr %8, align 1
  %11 = trunc i8 %10 to i1
  br i1 %11, label %12, label %42

12:                                               ; preds = %4
  %13 = load ptr, ptr %6, align 8
  %14 = getelementptr inbounds %struct._ir_insn, ptr %13, i32 0, i32 0
  %15 = getelementptr inbounds %struct.anon, ptr %14, i32 0, i32 0
  %16 = getelementptr inbounds %struct.anon.1, ptr %15, i32 0, i32 0
  %17 = getelementptr inbounds %struct.anon.3, ptr %16, i32 0, i32 0
  %18 = load i8, ptr %17, align 8
  %19 = zext i8 %18 to i32
  %20 = icmp eq i32 %19, 16
  br i1 %20, label %30, label %21

21:                                               ; preds = %12
  %22 = load ptr, ptr %6, align 8
  %23 = getelementptr inbounds %struct._ir_insn, ptr %22, i32 0, i32 0
  %24 = getelementptr inbounds %struct.anon, ptr %23, i32 0, i32 0
  %25 = getelementptr inbounds %struct.anon.1, ptr %24, i32 0, i32 0
  %26 = getelementptr inbounds %struct.anon.3, ptr %25, i32 0, i32 0
  %27 = load i8, ptr %26, align 8
  %28 = zext i8 %27 to i32
  %29 = icmp eq i32 %28, 18
  br i1 %29, label %30, label %41

30:                                               ; preds = %21, %12
  %31 = load ptr, ptr %6, align 8
  call void @ir_swap_ops(ptr noundef %31)
  %32 = load ptr, ptr %6, align 8
  %33 = getelementptr inbounds %struct._ir_insn, ptr %32, i32 0, i32 0
  %34 = getelementptr inbounds %struct.anon, ptr %33, i32 0, i32 0
  %35 = getelementptr inbounds %struct.anon.1, ptr %34, i32 0, i32 0
  %36 = getelementptr inbounds %struct.anon.3, ptr %35, i32 0, i32 0
  %37 = load i8, ptr %36, align 8
  %38 = zext i8 %37 to i32
  %39 = xor i32 %38, 3
  %40 = trunc i32 %39 to i8
  store i8 %40, ptr %36, align 8
  br label %41

41:                                               ; preds = %30, %21
  br label %72

42:                                               ; preds = %4
  %43 = load ptr, ptr %6, align 8
  %44 = getelementptr inbounds %struct._ir_insn, ptr %43, i32 0, i32 0
  %45 = getelementptr inbounds %struct.anon, ptr %44, i32 0, i32 0
  %46 = getelementptr inbounds %struct.anon.1, ptr %45, i32 0, i32 0
  %47 = getelementptr inbounds %struct.anon.3, ptr %46, i32 0, i32 0
  %48 = load i8, ptr %47, align 8
  %49 = zext i8 %48 to i32
  %50 = icmp eq i32 %49, 19
  br i1 %50, label %60, label %51

51:                                               ; preds = %42
  %52 = load ptr, ptr %6, align 8
  %53 = getelementptr inbounds %struct._ir_insn, ptr %52, i32 0, i32 0
  %54 = getelementptr inbounds %struct.anon, ptr %53, i32 0, i32 0
  %55 = getelementptr inbounds %struct.anon.1, ptr %54, i32 0, i32 0
  %56 = getelementptr inbounds %struct.anon.3, ptr %55, i32 0, i32 0
  %57 = load i8, ptr %56, align 8
  %58 = zext i8 %57 to i32
  %59 = icmp eq i32 %58, 17
  br i1 %59, label %60, label %71

60:                                               ; preds = %51, %42
  %61 = load ptr, ptr %6, align 8
  call void @ir_swap_ops(ptr noundef %61)
  %62 = load ptr, ptr %6, align 8
  %63 = getelementptr inbounds %struct._ir_insn, ptr %62, i32 0, i32 0
  %64 = getelementptr inbounds %struct.anon, ptr %63, i32 0, i32 0
  %65 = getelementptr inbounds %struct.anon.1, ptr %64, i32 0, i32 0
  %66 = getelementptr inbounds %struct.anon.3, ptr %65, i32 0, i32 0
  %67 = load i8, ptr %66, align 8
  %68 = zext i8 %67 to i32
  %69 = xor i32 %68, 3
  %70 = trunc i32 %69 to i8
  store i8 %70, ptr %66, align 8
  br label %71

71:                                               ; preds = %60, %51
  br label %72

72:                                               ; preds = %71, %41
  %73 = load ptr, ptr %6, align 8
  %74 = getelementptr inbounds %struct._ir_insn, ptr %73, i32 0, i32 1
  %75 = getelementptr inbounds %struct.anon.7, ptr %74, i32 0, i32 0
  %76 = load i32, ptr %75, align 8
  %77 = icmp slt i32 %76, 0
  br i1 %77, label %78, label %123

78:                                               ; preds = %72
  %79 = load ptr, ptr %5, align 8
  %80 = getelementptr inbounds %struct._ir_ctx, ptr %79, i32 0, i32 0
  %81 = load ptr, ptr %80, align 8
  %82 = load ptr, ptr %6, align 8
  %83 = getelementptr inbounds %struct._ir_insn, ptr %82, i32 0, i32 1
  %84 = getelementptr inbounds %struct.anon.7, ptr %83, i32 0, i32 0
  %85 = load i32, ptr %84, align 8
  %86 = sext i32 %85 to i64
  %87 = getelementptr inbounds %struct._ir_insn, ptr %81, i64 %86
  %88 = getelementptr inbounds %struct._ir_insn, ptr %87, i32 0, i32 0
  %89 = getelementptr inbounds %struct.anon, ptr %88, i32 0, i32 0
  %90 = getelementptr inbounds %struct.anon.1, ptr %89, i32 0, i32 0
  %91 = getelementptr inbounds %struct.anon.3, ptr %90, i32 0, i32 1
  %92 = load i8, ptr %91, align 1
  %93 = zext i8 %92 to i32
  %94 = icmp eq i32 %93, 12
  br i1 %94, label %95, label %108

95:                                               ; preds = %78
  %96 = load ptr, ptr %5, align 8
  %97 = getelementptr inbounds %struct._ir_ctx, ptr %96, i32 0, i32 0
  %98 = load ptr, ptr %97, align 8
  %99 = load ptr, ptr %6, align 8
  %100 = getelementptr inbounds %struct._ir_insn, ptr %99, i32 0, i32 1
  %101 = getelementptr inbounds %struct.anon.7, ptr %100, i32 0, i32 0
  %102 = load i32, ptr %101, align 8
  %103 = sext i32 %102 to i64
  %104 = getelementptr inbounds %struct._ir_insn, ptr %98, i64 %103
  %105 = getelementptr inbounds %struct._ir_insn, ptr %104, i32 0, i32 1
  %106 = load i64, ptr %105, align 8
  %107 = icmp eq i64 %106, 0
  br i1 %107, label %123, label %122

108:                                              ; preds = %78
  %109 = load ptr, ptr %5, align 8
  %110 = getelementptr inbounds %struct._ir_ctx, ptr %109, i32 0, i32 0
  %111 = load ptr, ptr %110, align 8
  %112 = load ptr, ptr %6, align 8
  %113 = getelementptr inbounds %struct._ir_insn, ptr %112, i32 0, i32 1
  %114 = getelementptr inbounds %struct.anon.7, ptr %113, i32 0, i32 0
  %115 = load i32, ptr %114, align 8
  %116 = sext i32 %115 to i64
  %117 = getelementptr inbounds %struct._ir_insn, ptr %111, i64 %116
  %118 = getelementptr inbounds %struct._ir_insn, ptr %117, i32 0, i32 1
  %119 = getelementptr inbounds %struct.anon.8, ptr %118, i32 0, i32 0
  %120 = load i32, ptr %119, align 8
  %121 = icmp eq i32 %120, 0
  br i1 %121, label %123, label %122

122:                                              ; preds = %108, %95
  br label %222

123:                                              ; preds = %108, %95, %72
  %124 = load ptr, ptr %5, align 8
  %125 = load ptr, ptr %6, align 8
  %126 = getelementptr inbounds %struct._ir_insn, ptr %125, i32 0, i32 1
  %127 = getelementptr inbounds %struct.anon.7, ptr %126, i32 0, i32 0
  %128 = load i32, ptr %127, align 8
  %129 = load i32, ptr %7, align 4
  %130 = call zeroext i1 @ir_match_try_fuse_load(ptr noundef %124, i32 noundef %128, i32 noundef %129)
  br i1 %130, label %131, label %132

131:                                              ; preds = %123
  br label %221

132:                                              ; preds = %123
  %133 = load ptr, ptr %6, align 8
  %134 = getelementptr inbounds %struct._ir_insn, ptr %133, i32 0, i32 0
  %135 = getelementptr inbounds %struct.anon, ptr %134, i32 0, i32 1
  %136 = load i32, ptr %135, align 4
  %137 = icmp slt i32 %136, 0
  br i1 %137, label %138, label %182

138:                                              ; preds = %132
  %139 = load ptr, ptr %5, align 8
  %140 = getelementptr inbounds %struct._ir_ctx, ptr %139, i32 0, i32 0
  %141 = load ptr, ptr %140, align 8
  %142 = load ptr, ptr %6, align 8
  %143 = getelementptr inbounds %struct._ir_insn, ptr %142, i32 0, i32 0
  %144 = getelementptr inbounds %struct.anon, ptr %143, i32 0, i32 1
  %145 = load i32, ptr %144, align 4
  %146 = sext i32 %145 to i64
  %147 = getelementptr inbounds %struct._ir_insn, ptr %141, i64 %146
  %148 = getelementptr inbounds %struct._ir_insn, ptr %147, i32 0, i32 0
  %149 = getelementptr inbounds %struct.anon, ptr %148, i32 0, i32 0
  %150 = getelementptr inbounds %struct.anon.1, ptr %149, i32 0, i32 0
  %151 = getelementptr inbounds %struct.anon.3, ptr %150, i32 0, i32 1
  %152 = load i8, ptr %151, align 1
  %153 = zext i8 %152 to i32
  %154 = icmp eq i32 %153, 12
  br i1 %154, label %155, label %168

155:                                              ; preds = %138
  %156 = load ptr, ptr %5, align 8
  %157 = getelementptr inbounds %struct._ir_ctx, ptr %156, i32 0, i32 0
  %158 = load ptr, ptr %157, align 8
  %159 = load ptr, ptr %6, align 8
  %160 = getelementptr inbounds %struct._ir_insn, ptr %159, i32 0, i32 0
  %161 = getelementptr inbounds %struct.anon, ptr %160, i32 0, i32 1
  %162 = load i32, ptr %161, align 4
  %163 = sext i32 %162 to i64
  %164 = getelementptr inbounds %struct._ir_insn, ptr %158, i64 %163
  %165 = getelementptr inbounds %struct._ir_insn, ptr %164, i32 0, i32 1
  %166 = load i64, ptr %165, align 8
  %167 = icmp eq i64 %166, 0
  br i1 %167, label %182, label %190

168:                                              ; preds = %138
  %169 = load ptr, ptr %5, align 8
  %170 = getelementptr inbounds %struct._ir_ctx, ptr %169, i32 0, i32 0
  %171 = load ptr, ptr %170, align 8
  %172 = load ptr, ptr %6, align 8
  %173 = getelementptr inbounds %struct._ir_insn, ptr %172, i32 0, i32 0
  %174 = getelementptr inbounds %struct.anon, ptr %173, i32 0, i32 1
  %175 = load i32, ptr %174, align 4
  %176 = sext i32 %175 to i64
  %177 = getelementptr inbounds %struct._ir_insn, ptr %171, i64 %176
  %178 = getelementptr inbounds %struct._ir_insn, ptr %177, i32 0, i32 1
  %179 = getelementptr inbounds %struct.anon.8, ptr %178, i32 0, i32 0
  %180 = load i32, ptr %179, align 8
  %181 = icmp eq i32 %180, 0
  br i1 %181, label %182, label %190

182:                                              ; preds = %168, %155, %132
  %183 = load ptr, ptr %5, align 8
  %184 = load ptr, ptr %6, align 8
  %185 = getelementptr inbounds %struct._ir_insn, ptr %184, i32 0, i32 0
  %186 = getelementptr inbounds %struct.anon, ptr %185, i32 0, i32 1
  %187 = load i32, ptr %186, align 4
  %188 = load i32, ptr %7, align 4
  %189 = call zeroext i1 @ir_match_try_fuse_load(ptr noundef %183, i32 noundef %187, i32 noundef %188)
  br i1 %189, label %190, label %220

190:                                              ; preds = %182, %168, %155
  %191 = load ptr, ptr %6, align 8
  call void @ir_swap_ops(ptr noundef %191)
  %192 = load ptr, ptr %6, align 8
  %193 = getelementptr inbounds %struct._ir_insn, ptr %192, i32 0, i32 0
  %194 = getelementptr inbounds %struct.anon, ptr %193, i32 0, i32 0
  %195 = getelementptr inbounds %struct.anon.1, ptr %194, i32 0, i32 0
  %196 = getelementptr inbounds %struct.anon.3, ptr %195, i32 0, i32 0
  %197 = load i8, ptr %196, align 8
  %198 = zext i8 %197 to i32
  %199 = icmp ne i32 %198, 14
  br i1 %199, label %200, label %219

200:                                              ; preds = %190
  %201 = load ptr, ptr %6, align 8
  %202 = getelementptr inbounds %struct._ir_insn, ptr %201, i32 0, i32 0
  %203 = getelementptr inbounds %struct.anon, ptr %202, i32 0, i32 0
  %204 = getelementptr inbounds %struct.anon.1, ptr %203, i32 0, i32 0
  %205 = getelementptr inbounds %struct.anon.3, ptr %204, i32 0, i32 0
  %206 = load i8, ptr %205, align 8
  %207 = zext i8 %206 to i32
  %208 = icmp ne i32 %207, 15
  br i1 %208, label %209, label %219

209:                                              ; preds = %200
  %210 = load ptr, ptr %6, align 8
  %211 = getelementptr inbounds %struct._ir_insn, ptr %210, i32 0, i32 0
  %212 = getelementptr inbounds %struct.anon, ptr %211, i32 0, i32 0
  %213 = getelementptr inbounds %struct.anon.1, ptr %212, i32 0, i32 0
  %214 = getelementptr inbounds %struct.anon.3, ptr %213, i32 0, i32 0
  %215 = load i8, ptr %214, align 8
  %216 = zext i8 %215 to i32
  %217 = xor i32 %216, 3
  %218 = trunc i32 %217 to i8
  store i8 %218, ptr %214, align 8
  br label %219

219:                                              ; preds = %209, %200, %190
  br label %220

220:                                              ; preds = %219, %182
  br label %221

221:                                              ; preds = %220, %131
  br label %222

222:                                              ; preds = %221, %122
  ret void
}