; Function Attrs: nounwind uwtable
define internal fastcc void @ir_match_fuse_load_cmp_fp_br(ptr noundef %0, ptr nocapture noundef %1, i32 noundef %2, i1 noundef zeroext %3) unnamed_addr #1 {
  %5 = load i8, ptr %1, align 8
  br i1 %3, label %6, label %11

6:                                                ; preds = %4
  switch i8 %5, label %17 [
    i8 16, label %7
    i8 18, label %7
  ]

7:                                                ; preds = %6, %6
  %8 = getelementptr inbounds i8, ptr %1, i64 4
  %9 = load <2 x i32>, ptr %8, align 4
  %10 = shufflevector <2 x i32> %9, <2 x i32> poison, <2 x i32> <i32 1, i32 0>
  store <2 x i32> %10, ptr %8, align 4
  br label %.sink.split

11:                                               ; preds = %4
  switch i8 %5, label %17 [
    i8 19, label %12
    i8 17, label %12
  ]

12:                                               ; preds = %11, %11
  %13 = getelementptr inbounds i8, ptr %1, i64 4
  %14 = load <2 x i32>, ptr %13, align 4
  %15 = shufflevector <2 x i32> %14, <2 x i32> poison, <2 x i32> <i32 1, i32 0>
  store <2 x i32> %15, ptr %13, align 4
  br label %.sink.split

.sink.split:                                      ; preds = %7, %12
  %16 = xor i8 %5, 3
  store i8 %16, ptr %1, align 8
  br label %17

17:                                               ; preds = %.sink.split, %11, %6
  %18 = getelementptr inbounds i8, ptr %1, i64 8
  %19 = load i32, ptr %18, align 8
  %20 = icmp slt i32 %19, 0
  br i1 %20, label %21, label %35

21:                                               ; preds = %17
  %22 = load ptr, ptr %0, align 8
  %23 = sext i32 %19 to i64
  %24 = getelementptr inbounds %struct._ir_insn, ptr %22, i64 %23
  %25 = getelementptr inbounds i8, ptr %24, i64 1
  %26 = load i8, ptr %25, align 1
  %27 = icmp eq i8 %26, 12
  %28 = getelementptr inbounds i8, ptr %24, i64 8
  br i1 %27, label %29, label %32

29:                                               ; preds = %21
  %30 = load i64, ptr %28, align 8
  %31 = icmp eq i64 %30, 0
  br i1 %31, label %35, label %64

32:                                               ; preds = %21
  %33 = load i32, ptr %28, align 8
  %34 = icmp eq i32 %33, 0
  br i1 %34, label %35, label %64

35:                                               ; preds = %32, %29, %17
  %36 = tail call fastcc zeroext i1 @ir_match_try_fuse_load(ptr noundef %0, i32 noundef %19, i32 noundef %2)
  br i1 %36, label %64, label %37

37:                                               ; preds = %35
  %38 = getelementptr inbounds i8, ptr %1, i64 4
  %39 = load i32, ptr %38, align 4
  %40 = icmp slt i32 %39, 0
  br i1 %40, label %41, label %55

41:                                               ; preds = %37
  %42 = load ptr, ptr %0, align 8
  %43 = sext i32 %39 to i64
  %44 = getelementptr inbounds %struct._ir_insn, ptr %42, i64 %43
  %45 = getelementptr inbounds i8, ptr %44, i64 1
  %46 = load i8, ptr %45, align 1
  %47 = icmp eq i8 %46, 12
  %48 = getelementptr inbounds i8, ptr %44, i64 8
  br i1 %47, label %49, label %52

49:                                               ; preds = %41
  %50 = load i64, ptr %48, align 8
  %51 = icmp eq i64 %50, 0
  br i1 %51, label %55, label %57

52:                                               ; preds = %41
  %53 = load i32, ptr %48, align 8
  %54 = icmp eq i32 %53, 0
  br i1 %54, label %55, label %57

55:                                               ; preds = %52, %49, %37
  %56 = tail call fastcc zeroext i1 @ir_match_try_fuse_load(ptr noundef %0, i32 noundef %39, i32 noundef %2)
  br i1 %56, label %._crit_edge, label %64

._crit_edge:                                      ; preds = %55
  %.pre = load i32, ptr %38, align 4
  br label %57

57:                                               ; preds = %._crit_edge, %52, %49
  %58 = phi i32 [ %.pre, %._crit_edge ], [ %39, %52 ], [ %39, %49 ]
  %59 = load i32, ptr %18, align 8
  store i32 %59, ptr %38, align 4
  store i32 %58, ptr %18, align 8
  %60 = load i8, ptr %1, align 8
  %61 = and i8 %60, -2
  %switch = icmp eq i8 %61, 14
  br i1 %switch, label %64, label %62

62:                                               ; preds = %57
  %63 = xor i8 %60, 3
  store i8 %63, ptr %1, align 8
  br label %64

64:                                               ; preds = %57, %35, %62, %55, %29, %32
  ret void
}